Certificate:
    Data:
        Version: 1 (0x0)
        Serial Number: 9981993858310521721 (0x8a872a86fabac379)
    Signature Algorithm: sha256WithRSAEncryption
        Issuer: CN=localhost
        Validity
            Not Before: Nov  9 14:22:48 2021 GMT
            Not After : Dec  9 14:22:48 2021 GMT
        Subject: CN=localhost
        Subject Public Key Info:
            Public Key Algorithm: rsaEncryption
                Public-Key: (2048 bit)
                Modulus:
                    00:c6:45:82:7f:fd:d9:00:78:59:e1:28:bf:55:20:
                    66:48:a2:23:d2:6c:39:16:08:34:6d:9b:c9:f7:7a:
                    fb:8f:28:0e:38:1e:94:bd:62:b2:bd:22:ae:b1:9c:
                    7c:7d:0a:6e:e1:1d:21:3f:9e:ed:d9:1e:84:1e:47:
                    d5:0a:44:db:26:ce:de:3d:de:c6:ab:5b:e8:fe:e7:
                    52:55:fe:6d:c3:62:b6:fe:c4:d0:c5:52:bd:e0:32:
                    81:ff:49:b4:2c:0c:ba:33:80:dd:ba:f3:0a:34:a9:
                    d3:ad:bf:69:da:09:c3:e9:2d:89:c0:4b:b7:06:0a:
                    58:02:80:06:55:e4:17:81:55:2b:49:5e:73:30:6e:
                    b6:e1:87:38:88:71:84:fc:89:7b:2c:91:6a:07:33:
                    5d:b2:d0:0d:22:99:57:55:fd:55:dd:24:ea:c6:38:
                    24:73:cf:e7:4b:bf:49:c4:5e:15:a7:19:74:5a:45:
                    94:47:47:75:90:dc:69:99:af:b5:2c:4d:f3:8a:64:
                    16:b2:9d:a2:ff:97:9d:7c:6a:73:73:86:c0:f3:3e:
                    5a:48:1b:5e:9c:03:ef:53:b7:32:46:96:1f:dd:a2:
                    a3:c6:68:fc:92:03:b8:24:32:60:c5:f8:97:f0:4b:
                    b2:9b:61:f1:45:be:d4:68:12:c5:00:a1:77:9b:d2:
                    dc:3d
                Exponent: 65537 (0x10001)
    Signature Algorithm: sha256WithRSAEncryption
         b2:2b:b8:41:a4:39:59:a4:7b:0c:f9:58:c3:83:11:3f:2f:11:
         f2:e4:f0:9c:f1:38:ac:9d:37:4a:e8:9d:22:54:5e:85:41:f6:
         67:2b:e7:46:ea:dc:3a:e7:f2:02:c1:0c:62:c5:e4:2b:5c:f7:
         dd:9d:28:48:1a:84:3f:35:4a:27:03:d3:e3:7c:9c:d9:9c:4f:
         6b:f9:ec:54:2d:da:cb:91:4d:92:7b:dd:32:3d:a9:d8:a4:13:
         e7:b2:a0:af:f7:61:af:dd:ab:11:ff:c8:22:d4:34:bd:9e:2d:
         9e:fd:54:1e:3c:3f:56:bf:df:1f:c7:e2:4d:ea:c2:f5:d2:47:
         db:69:19:d3:db:b9:de:34:7b:dd:b9:db:53:d4:39:01:86:3d:
         07:cb:82:dd:00:d0:50:43:86:ee:9a:8a:2d:9c:dd:fd:32:a4:
         88:a2:d3:08:71:fc:1b:e8:89:84:52:53:66:f3:fd:fd:14:e4:
         ac:a5:9f:4a:f2:13:f3:bd:f7:56:6a:a9:61:c4:82:bd:64:e0:
         5c:f2:22:19:3e:0d:19:1d:ad:75:c1:20:bc:87:3d:dd:7d:2c:
         66:99:5b:d9:ca:4a:c8:2c:88:d1:ac:a9:0a:9c:da:dc:12:52:
         f2:f2:28:f9:24:d1:7d:fb:9e:12:5b:5f:62:09:5b:92:bd:a3:
         91:b9:8f:9d
-----BEGIN CERTIFICATE-----
MIICpDCCAYwCCQCKhyqG+rrDeTANBgkqhkiG9w0BAQsFADAUMRIwEAYDVQQDDAls
b2NhbGhvc3QwHhcNMjExMTA5MTQyMjQ4WhcNMjExMjA5MTQyMjQ4WjAUMRIwEAYD
VQQDDAlsb2NhbGhvc3QwggEiMA0GCSqGSIb3DQEBAQUAA4IBDwAwggEKAoIBAQDG
RYJ//dkAeFnhKL9VIGZIoiPSbDkWCDRtm8n3evuPKA44HpS9YrK9Iq6xnHx9Cm7h
HSE/nu3ZHoQeR9UKRNsmzt493sarW+j+51JV/m3DYrb+xNDFUr3gMoH/SbQsDLoz
gN268wo0qdOtv2naCcPpLYnAS7cGClgCgAZV5BeBVStJXnMwbrbhhziIcYT8iXss
kWoHM12y0A0imVdV/VXdJOrGOCRzz+dLv0nEXhWnGXRaRZRHR3WQ3GmZr7UsTfOK
ZBaynaL/l518anNzhsDzPlpIG16cA+9TtzJGlh/doqPGaPySA7gkMmDF+JfwS7Kb
YfFFvtRoEsUAoXeb0tw9AgMBAAEwDQYJKoZIhvcNAQELBQADggEBALIruEGkOVmk
ewz5WMODET8vEfLk8JzxOKydN0ronSJUXoVB9mcr50bq3Drn8gLBDGLF5Ctc992d
KEgahD81SicD0+N8nNmcT2v57FQt2suRTZJ73TI9qdikE+eyoK/3Ya/dqxH/yCLU
NL2eLZ79VB48P1a/3x/H4k3qwvXSR9tpGdPbud40e92521PUOQGGPQfLgt0A0FBD
hu6aii2c3f0ypIii0whx/BvoiYRSU2bz/f0U5Kyln0ryE/O991ZqqWHEgr1k4Fzy
Ihk+DRkdrXXBILyHPd19LGaZW9nKSsgsiNGsqQqc2twSUvLyKPkk0X37nhJbX2IJ
W5K9o5G5j50=
-----END CERTIFICATE-----
